; ModuleID = 'source-C-CXX/12/386.c'
source_filename = "source-C-CXX/12/386.c"
target datalayout = "e-m:e-p270:32:32-p271:32:32-p272:64:64-i64:64-f80:128-n8:16:32:64-S128"
target triple = "x86_64-pc-linux-gnu"

@.str = private unnamed_addr constant [3 x i8] c"%d\00", align 1
@.str.1 = private unnamed_addr constant [4 x i8] c"%d \00", align 1
@.str.2 = private unnamed_addr constant [4 x i8] c"%d\0A\00", align 1

; Function Attrs: nofree nounwind sspstrong uwtable
define dso_local void @main() local_unnamed_addr #0 {
  %1 = alloca [20000 x i32], align 16
  %2 = alloca i32, align 4
  %3 = bitcast [20000 x i32]* %1 to i8*
  call void @llvm.lifetime.start.p0i8(i64 80000, i8* nonnull %3) #3
  %4 = bitcast i32* %2 to i8*
  call void @llvm.lifetime.start.p0i8(i64 4, i8* nonnull %4) #3
  %5 = call i32 (i8*, ...) @__isoc99_scanf(i8* getelementptr inbounds ([3 x i8], [3 x i8]* @.str, i64 0, i64 0), i32* nonnull %2)
  %6 = load i32, i32* %2, align 4, !tbaa !5
  %7 = icmp sgt i32 %6, 0
  br i1 %7, label %13, label %59

8:                                                ; preds = %13
  %9 = icmp sgt i32 %18, 0
  br i1 %9, label %10, label %59

10:                                               ; preds = %8
  %11 = zext i32 %18 to i64
  %12 = getelementptr inbounds [20000 x i32], [20000 x i32]* %1, i64 0, i64 0
  br label %21

13:                                               ; preds = %0, %13
  %14 = phi i64 [ %17, %13 ], [ 0, %0 ]
  %15 = getelementptr inbounds [20000 x i32], [20000 x i32]* %1, i64 0, i64 %14
  %16 = call i32 (i8*, ...) @__isoc99_scanf(i8* getelementptr inbounds ([3 x i8], [3 x i8]* @.str, i64 0, i64 0), i32* nonnull %15)
  %17 = add nuw nsw i64 %14, 1
  %18 = load i32, i32* %2, align 4, !tbaa !5
  %19 = sext i32 %18 to i64
  %20 = icmp slt i64 %17, %19
  br i1 %20, label %13, label %8, !llvm.loop !9

21:                                               ; preds = %10, %48
  %22 = phi i64 [ 0, %10 ], [ %50, %48 ]
  %23 = phi i32 [ 0, %10 ], [ %49, %48 ]
  %24 = icmp eq i64 %22, 0
  br i1 %24, label %25, label %27

25:                                               ; preds = %21
  %26 = load i32, i32* %12, align 16, !tbaa !5
  br label %43

27:                                               ; preds = %21
  %28 = getelementptr inbounds [20000 x i32], [20000 x i32]* %1, i64 0, i64 %22
  %29 = load i32, i32* %28, align 4, !tbaa !5
  br label %37

30:                                               ; preds = %48
  %31 = add i32 %49, -1
  %32 = icmp sgt i32 %49, 1
  br i1 %32, label %33, label %59

33:                                               ; preds = %30
  %34 = zext i32 %31 to i64
  br label %52

35:                                               ; preds = %37
  %36 = icmp eq i64 %42, %22
  br i1 %36, label %43, label %37, !llvm.loop !11

37:                                               ; preds = %27, %35
  %38 = phi i64 [ 0, %27 ], [ %42, %35 ]
  %39 = getelementptr inbounds [20000 x i32], [20000 x i32]* %1, i64 0, i64 %38
  %40 = load i32, i32* %39, align 4, !tbaa !5
  %41 = icmp eq i32 %29, %40
  %42 = add nuw nsw i64 %38, 1
  br i1 %41, label %48, label %35

43:                                               ; preds = %35, %25
  %44 = phi i32 [ %26, %25 ], [ %29, %35 ]
  %45 = sext i32 %23 to i64
  %46 = getelementptr inbounds [20000 x i32], [20000 x i32]* %1, i64 0, i64 %45
  store i32 %44, i32* %46, align 4, !tbaa !5
  %47 = add nsw i32 %23, 1
  br label %48

48:                                               ; preds = %37, %43
  %49 = phi i32 [ %47, %43 ], [ %23, %37 ]
  %50 = add nuw nsw i64 %22, 1
  %51 = icmp eq i64 %50, %11
  br i1 %51, label %30, label %21, !llvm.loop !12

52:                                               ; preds = %33, %52
  %53 = phi i64 [ 0, %33 ], [ %57, %52 ]
  %54 = getelementptr inbounds [20000 x i32], [20000 x i32]* %1, i64 0, i64 %53
  %55 = load i32, i32* %54, align 4, !tbaa !5
  %56 = call i32 (i8*, ...) @printf(i8* nonnull dereferenceable(1) getelementptr inbounds ([4 x i8], [4 x i8]* @.str.1, i64 0, i64 0), i32 %55)
  %57 = add nuw nsw i64 %53, 1
  %58 = icmp eq i64 %57, %34
  br i1 %58, label %59, label %52, !llvm.loop !13

59:                                               ; preds = %52, %0, %8, %30
  %60 = phi i32 [ %31, %30 ], [ -1, %8 ], [ -1, %0 ], [ %31, %52 ]
  %61 = sext i32 %60 to i64
  %62 = getelementptr inbounds [20000 x i32], [20000 x i32]* %1, i64 0, i64 %61
  %63 = load i32, i32* %62, align 4, !tbaa !5
  %64 = call i32 (i8*, ...) @printf(i8* nonnull dereferenceable(1) getelementptr inbounds ([4 x i8], [4 x i8]* @.str.2, i64 0, i64 0), i32 %63)
  call void @llvm.lifetime.end.p0i8(i64 4, i8* nonnull %4) #3
  call void @llvm.lifetime.end.p0i8(i64 80000, i8* nonnull %3) #3
  ret void
}

; Function Attrs: argmemonly mustprogress nofree nosync nounwind willreturn
declare void @llvm.lifetime.start.p0i8(i64 immarg, i8* nocapture) #1

; Function Attrs: nofree nounwind
declare noundef i32 @__isoc99_scanf(i8* nocapture noundef readonly, ...) local_unnamed_addr #2

; Function Attrs: nofree nounwind
declare noundef i32 @printf(i8* nocapture noundef readonly, ...) local_unnamed_addr #2

; Function Attrs: argmemonly mustprogress nofree nosync nounwind willreturn
declare void @llvm.lifetime.end.p0i8(i64 immarg, i8* nocapture) #1


!llvm.module.flags = !{!0, !1, !2, !3}
!llvm.ident = !{!4}

!0 = !{i32 1, !"wchar_size", i32 4}
!1 = !{i32 7, !"PIC Level", i32 2}
!2 = !{i32 7, !"PIE Level", i32 2}
!3 = !{i32 7, !"uwtable", i32 1}
!4 = !{!"clang version 13.0.0"}
!5 = !{!6, !6, i64 0}
!6 = !{!"int", !7, i64 0}
!7 = !{!"omnipotent char", !8, i64 0}
!8 = !{!"Simple C/C++ TBAA"}
!9 = distinct !{!9, !10}
!10 = !{!"llvm.loop.mustprogress"}
!11 = distinct !{!11, !10}
!12 = distinct !{!12, !10}
!13 = distinct !{!13, !10}
